; Function Attrs: mustprogress uwtable
define hidden noundef nonnull align 8 dereferenceable(128) ptr @_ZNK7datalog14bound_relation10get_pluginEv(ptr noundef nonnull readonly align 8 captures(none) dereferenceable(136) %0) local_unnamed_addr #3 align 2 {
  %2 = getelementptr inbounds nuw i8, ptr %0, i64 8
  %3 = load ptr, ptr %2, align 8, !tbaa !54
  %4 = tail call ptr @__dynamic_cast(ptr nonnull %3, ptr nonnull @_ZTIN7datalog15relation_pluginE, ptr nonnull @_ZTIN7datalog21bound_relation_pluginE, i64 0) #24
  %5 = icmp eq ptr %4, null
  br i1 %5, label %6, label %7

6:                                                ; preds = %1
  tail call void @__cxa_bad_cast() #25
  unreachable

7:                                                ; preds = %1
  ret ptr %4
}